; Function Attrs: nounwind uwtable
define internal noundef i32 @_camera_timeout_job(ptr noundef %0) #0 {
  %2 = load i32, ptr getelementptr inbounds nuw (i8, ptr @darktable, i64 8), align 8, !tbaa !19
  %3 = and i32 %2, 32
  %.not = icmp eq i32 %3, 0
  br i1 %.not, label %5, label %4

4:                                                ; preds = %1
  tail call void (ptr, ...) @dt_print_ext(ptr noundef nonnull @.str.75, ptr noundef %0) #15
  br label %5

5:                                                ; preds = %4, %1
  %6 = getelementptr inbounds nuw i8, ptr %0, i64 32792
  %7 = load ptr, ptr %6, align 8, !tbaa !207
  %8 = getelementptr inbounds nuw i8, ptr %0, i64 32952
  %9 = load ptr, ptr %8, align 8, !tbaa !94
  %10 = getelementptr inbounds nuw i8, ptr %0, i64 32960
  %11 = load ptr, ptr %10, align 8, !tbaa !95
  %12 = tail call i32 %7(ptr noundef %9, ptr noundef %11) #15
  ret i32 1
}